; Function Attrs: nounwind uwtable
define ptr @l_Lake_Toml_decNumberSepFn___boxed(ptr noundef %0, ptr noundef %1, ptr noundef %2, ptr noundef %3, ptr noundef %4) local_unnamed_addr #1 {
  %6 = ptrtoint ptr %1 to i64
  %7 = lshr i64 %6, 1
  %8 = trunc i64 %7 to i32
  %9 = and i64 %6, 1
  %.not = icmp eq i64 %9, 0
  br i1 %.not, label %10, label %lean_dec.exit

10:                                               ; preds = %5
  %11 = load i32, ptr %1, align 4, !tbaa !4
  %12 = icmp sgt i32 %11, 1
  br i1 %12, label %13, label %15, !prof !9

13:                                               ; preds = %10
  %14 = add nsw i32 %11, -1
  store i32 %14, ptr %1, align 4, !tbaa !4
  br label %lean_dec.exit

15:                                               ; preds = %10
  %.not.i = icmp eq i32 %11, 0
  br i1 %.not.i, label %lean_dec.exit, label %16

16:                                               ; preds = %15
  tail call void @lean_dec_ref_cold(ptr noundef nonnull %1) #4
  br label %lean_dec.exit

lean_dec.exit:                                    ; preds = %16, %15, %13, %5
  %.not.i7 = icmp eq i32 %8, 95
  br i1 %.not.i7, label %19, label %17

17:                                               ; preds = %lean_dec.exit
  %18 = tail call ptr @l_Lake_Toml_decNumberTailAuxFn(ptr noundef %0, i32 noundef %8, ptr noundef %2, ptr noundef %3, ptr noundef %4)
  br label %l_Lake_Toml_decNumberSepFn.exit

19:                                               ; preds = %lean_dec.exit
  %20 = tail call ptr @l_Lean_Parser_ParserState_setPos(ptr noundef %4, ptr noundef %2) #4
  %21 = tail call ptr @l_Lake_Toml_decNumberFn(ptr noundef %0, ptr noundef %3, ptr noundef %20)
  br label %l_Lake_Toml_decNumberSepFn.exit

l_Lake_Toml_decNumberSepFn.exit:                  ; preds = %17, %19
  %.0.i = phi ptr [ %18, %17 ], [ %21, %19 ]
  ret ptr %.0.i
}